target datalayout = "e-m:e-p270:32:32-p271:32:32-p272:64:64-i64:64-i128:128-f80:128-n8:16:32:64-S128"
target triple = "x86_64-unknown-linux-gnu"

%struct.VirtIOSCSICommon = type { %struct.VirtIODevice, %struct.VirtIOSCSIConf, i32, i32, ptr, ptr, ptr }
%struct.VirtIODevice = type { %struct.DeviceState, ptr, i8, i8, i16, i64, i64, i64, i64, ptr, i16, i32, i32, ptr, %struct.MemoryListener, i16, i8, i8, i8, i8, i8, i8, i8, i8, i8, ptr, ptr, i8, i8, ptr, ptr, %union.anon.1, %struct.EventNotifier, i8 }
%struct.DeviceState = type { %struct.Object, ptr, ptr, i8, i8, i64, ptr, i32, i8, ptr, %struct.NamedGPIOListHead, %struct.NamedClockListHead, %struct.BusStateHead, i32, i32, i32, %struct.ResettableState, ptr, %struct.MemReentrancyGuard }
%struct.Object = type { ptr, ptr, ptr, i32, ptr }
%struct.NamedGPIOListHead = type { ptr }
%struct.NamedClockListHead = type { ptr }
%struct.BusStateHead = type { ptr }
%struct.ResettableState = type { i32, i8, i8 }
%struct.MemReentrancyGuard = type { i8 }
%struct.MemoryListener = type { ptr, ptr, ptr, ptr, ptr, ptr, ptr, ptr, ptr, ptr, ptr, ptr, ptr, ptr, ptr, ptr, ptr, i32, ptr, ptr, %union.anon, %union.anon.0 }
%union.anon = type { %struct.QTailQLink }
%struct.QTailQLink = type { ptr, ptr }
%union.anon.0 = type { %struct.QTailQLink }
%union.anon.1 = type { %struct.QTailQLink }
%struct.EventNotifier = type { i32, i32, i8 }
%struct.VirtIOSCSIConf = type { i32, i32, i8, i32, i32, ptr, ptr, %struct.CharBackend, i32, ptr }
%struct.CharBackend = type { ptr, ptr, ptr, ptr, ptr, ptr, i32, i32 }

@.str.3 = private unnamed_addr constant [14 x i8] c"virtio-device\00", align 1
@.str.4 = private unnamed_addr constant [105 x i8] c"/home/dtcxzyw/WorkSpace/Projects/compilers/llvm-opt-benchmark/bench/qemu/qemu/include/hw/virtio/virtio.h\00", align 1
@__func__.VIRTIO_DEVICE = private unnamed_addr constant [14 x i8] c"VIRTIO_DEVICE\00", align 1
@.str.5 = private unnamed_addr constant [19 x i8] c"virtio-scsi-common\00", align 1
@.str.6 = private unnamed_addr constant [110 x i8] c"/home/dtcxzyw/WorkSpace/Projects/compilers/llvm-opt-benchmark/bench/qemu/qemu/include/hw/virtio/virtio-scsi.h\00", align 1
@__func__.VIRTIO_SCSI_COMMON = private unnamed_addr constant [19 x i8] c"VIRTIO_SCSI_COMMON\00", align 1

; Function Attrs: nounwind sspstrong uwtable
define internal ptr @VIRTIO_SCSI_COMMON(ptr noundef %obj) #0 {
entry:
  %obj.addr = alloca ptr, align 8
  store ptr %obj, ptr %obj.addr, align 8
  %0 = load ptr, ptr %obj.addr, align 8
  %call = call ptr @object_dynamic_cast_assert(ptr noundef %0, ptr noundef @.str.5, ptr noundef @.str.6, i32 noundef 28, ptr noundef @__func__.VIRTIO_SCSI_COMMON)
  ret ptr %call
}

; Function Attrs: nounwind sspstrong uwtable
define internal ptr @VIRTIO_DEVICE(ptr noundef %obj) #0 {
entry:
  %obj.addr = alloca ptr, align 8
  store ptr %obj, ptr %obj.addr, align 8
  %0 = load ptr, ptr %obj.addr, align 8
  %call = call ptr @object_dynamic_cast_assert(ptr noundef %0, ptr noundef @.str.3, ptr noundef @.str.4, i32 noundef 85, ptr noundef @__func__.VIRTIO_DEVICE)
  ret ptr %call
}

; Function Attrs: nounwind sspstrong uwtable
define dso_local void @virtio_scsi_common_unrealize(ptr noundef %dev) #0 {
entry:
  %dev.addr = alloca ptr, align 8
  %vdev = alloca ptr, align 8
  %vs = alloca ptr, align 8
  %i = alloca i32, align 4
  store ptr %dev, ptr %dev.addr, align 8
  %0 = load ptr, ptr %dev.addr, align 8
  %call = call ptr @VIRTIO_DEVICE(ptr noundef %0)
  store ptr %call, ptr %vdev, align 8
  %1 = load ptr, ptr %dev.addr, align 8
  %call1 = call ptr @VIRTIO_SCSI_COMMON(ptr noundef %1)
  store ptr %call1, ptr %vs, align 8
  %2 = load ptr, ptr %vs, align 8
  %ctrl_vq = getelementptr inbounds %struct.VirtIOSCSICommon, ptr %2, i32 0, i32 4
  %3 = load ptr, ptr %ctrl_vq, align 8
  call void @virtio_delete_queue(ptr noundef %3)
  %4 = load ptr, ptr %vs, align 8
  %event_vq = getelementptr inbounds %struct.VirtIOSCSICommon, ptr %4, i32 0, i32 5
  %5 = load ptr, ptr %event_vq, align 8
  call void @virtio_delete_queue(ptr noundef %5)
  store i32 0, ptr %i, align 4
  br label %for.cond

for.cond:                                         ; preds = %for.inc, %entry
  %6 = load i32, ptr %i, align 4
  %7 = load ptr, ptr %vs, align 8
  %conf = getelementptr inbounds %struct.VirtIOSCSICommon, ptr %7, i32 0, i32 1
  %num_queues = getelementptr inbounds %struct.VirtIOSCSIConf, ptr %conf, i32 0, i32 0
  %8 = load i32, ptr %num_queues, align 8
  %cmp = icmp ult i32 %6, %8
  br i1 %cmp, label %for.body, label %for.end

for.body:                                         ; preds = %for.cond
  %9 = load ptr, ptr %vs, align 8
  %cmd_vqs = getelementptr inbounds %struct.VirtIOSCSICommon, ptr %9, i32 0, i32 6
  %10 = load ptr, ptr %cmd_vqs, align 8
  %11 = load i32, ptr %i, align 4
  %idxprom = sext i32 %11 to i64
  %arrayidx = getelementptr ptr, ptr %10, i64 %idxprom
  %12 = load ptr, ptr %arrayidx, align 8
  call void @virtio_delete_queue(ptr noundef %12)
  br label %for.inc

for.inc:                                          ; preds = %for.body
  %13 = load i32, ptr %i, align 4
  %inc = add i32 %13, 1
  store i32 %inc, ptr %i, align 4
  br label %for.cond, !llvm.loop !7

for.end:                                          ; preds = %for.cond
  %14 = load ptr, ptr %vs, align 8
  %cmd_vqs2 = getelementptr inbounds %struct.VirtIOSCSICommon, ptr %14, i32 0, i32 6
  %15 = load ptr, ptr %cmd_vqs2, align 8
  call void @g_free(ptr noundef %15)
  %16 = load ptr, ptr %vdev, align 8
  call void @virtio_cleanup(ptr noundef %16)
  ret void
}