; Function Attrs: nounwind sspstrong uwtable
define dso_local void @virtio_scsi_common_unrealize(ptr noundef %dev) local_unnamed_addr #0 {
entry:
  %call.i = tail call ptr @object_dynamic_cast_assert(ptr noundef %dev, ptr noundef nonnull @.str.3, ptr noundef nonnull @.str.4, i32 noundef 85, ptr noundef nonnull @__func__.VIRTIO_DEVICE) #13
  %call.i8 = tail call ptr @object_dynamic_cast_assert(ptr noundef %dev, ptr noundef nonnull @.str.5, ptr noundef nonnull @.str.6, i32 noundef 28, ptr noundef nonnull @__func__.VIRTIO_SCSI_COMMON) #13
  %ctrl_vq = getelementptr inbounds nuw i8, ptr %call.i8, i64 640
  %0 = load ptr, ptr %ctrl_vq, align 8
  tail call void @virtio_delete_queue(ptr noundef %0) #13
  %event_vq = getelementptr inbounds nuw i8, ptr %call.i8, i64 648
  %1 = load ptr, ptr %event_vq, align 8
  tail call void @virtio_delete_queue(ptr noundef %1) #13
  %conf = getelementptr inbounds nuw i8, ptr %call.i8, i64 520
  %2 = load i32, ptr %conf, align 8
  %cmp9.not = icmp eq i32 %2, 0
  br i1 %cmp9.not, label %for.end, label %for.body.lr.ph

for.body.lr.ph:                                   ; preds = %entry
  %cmd_vqs = getelementptr inbounds nuw i8, ptr %call.i8, i64 656
  br label %for.body

for.body:                                         ; preds = %for.body.lr.ph, %for.body
  %i.010 = phi i32 [ 0, %for.body.lr.ph ], [ %inc, %for.body ]
  %3 = load ptr, ptr %cmd_vqs, align 8
  %idxprom = sext i32 %i.010 to i64
  %arrayidx = getelementptr ptr, ptr %3, i64 %idxprom
  %4 = load ptr, ptr %arrayidx, align 8
  tail call void @virtio_delete_queue(ptr noundef %4) #13
  %inc = add nuw i32 %i.010, 1
  %5 = load i32, ptr %conf, align 8
  %cmp = icmp ult i32 %inc, %5
  br i1 %cmp, label %for.body, label %for.end, !llvm.loop !7

for.end:                                          ; preds = %for.body, %entry
  %cmd_vqs2 = getelementptr inbounds nuw i8, ptr %call.i8, i64 656
  %6 = load ptr, ptr %cmd_vqs2, align 8
  tail call void @g_free(ptr noundef %6) #13
  tail call void @virtio_cleanup(ptr noundef %call.i) #13
  ret void
}